ccopy_reg
_reconstructor
p1
(cmeud.workspacemodel
WorkspaceItem
p2
c__builtin__
object
p3
NtRp4
(dp5
S'name'
p6
S'Workspace'
p7
sS'parent'
p8
NsS'precessor'
p9
NsS'path'
p10
S'/Users/jupp/workspace/meud/workspace'
p11
sS'type'
p12
S'Folder'
p13
sS'children'
p14
(lp15
g1
(g2
g3
NtRp16
(dp17
S'name'
p18
Vall_without_themes_6_10_12_15_r_t_reduced.cxt
p19
sS'parent'
p20
g4
sS'precessor'
p21
NsS'tab'
p22
NsS'path'
p23
V/Users/jupp/workspace/meud/workspace/all_without_themes_6_10_12_15_r_t_reduced.cxt
p24
sS'type'
p25
S'Context'
p26
sS'children'
p27
(lp28
sS'dir'
p29
I00
sbag1
(g2
g3
NtRp30
(dp31
g18
Vall_without_themes_6_10_12_15_r_t_reduced.xml
p32
sg20
g4
sg21
g16
sg22
Nsg23
V/Users/jupp/workspace/meud/workspace/all_without_themes_6_10_12_15_r_t_reduced.xml
p33
sg25
S'Concepts'
p34
sg27
(lp35
sg29
I00
sbag1
(g2
g3
NtRp36
(dp37
g18
Vtest.cxt
p38
sg20
g4
sg21
Nsg22
Nsg23
V/Users/jupp/workspace/meud/workspace/test.cxt
p39
sg25
g26
sg27
(lp40
sg29
I00
sbag1
(g2
g3
NtRp41
(dp42
g18
Vtest.xml
p43
sg20
g4
sg21
g36
sg23
V/Users/jupp/workspace/meud/workspace/test.xml
p44
sg25
g34
sg27
(lp45
sg29
I00
sbag1
(g2
g3
NtRp46
(dp47
S'name'
p48
Vdata.cxt
p49
sS'parent'
p50
g4
sS'precessor'
p51
NsS'path'
p52
V/Users/jupp/workspace/meud/workspace/data.cxt
p53
sS'type'
p54
S'Context'
p55
sS'children'
p56
(lp57
sS'dir'
p58
I00
sbag1
(g2
g3
NtRp59
(dp60
g48
Vdata.xml
p61
sg50
g4
sg51
g46
sS'tab'
p62
Nsg52
V/Users/jupp/workspace/meud/workspace/data.xml
p63
sg54
S'Concepts'
p64
sg56
(lp65
sg58
I00
sbag1
(g2
g3
NtRp66
(dp67
g48
Vdata.dot
p68
sg50
g4
sg51
g59
sg52
V/Users/jupp/workspace/meud/workspace/data.dot
p69
sg54
S'Graphviz dot'
p70
sg56
(lp71
sg58
I00
sbag1
(g2
g3
NtRp72
(dp73
S'name'
p74
Vdata-filtered-1.xml
p75
sS'parent'
p76
g4
sS'precessor'
p77
g59
sS'path'
p78
V/Users/jupp/workspace/meud/workspace/data-filtered-1.xml
p79
sS'type'
p80
S'Concepts'
p81
sS'children'
p82
(lp83
sS'dir'
p84
I00
sbag1
(g2
g3
NtRp85
(dp86
g74
Vdata-filtered-1-filtered.xml
p87
sg76
g4
sg77
g72
sS'tab'
p88
Nsg78
V/Users/jupp/workspace/meud/workspace/data-filtered-1-filtered.xml
p89
sg80
g81
sg82
(lp90
sg84
I00
sbag1
(g2
g3
NtRp91
(dp92
S'name'
p93
Vdata-filtered-3.xml
p94
sS'parent'
p95
g4
sS'precessor'
p96
g59
sS'path'
p97
V/Users/jupp/workspace/meud/workspace/data-filtered-3.xml
p98
sS'type'
p99
S'Concepts'
p100
sS'children'
p101
(lp102
sS'dir'
p103
I00
sbag1
(g2
g3
NtRp104
(dp105
S'name'
p106
Vpm.xml
p107
sS'parent'
p108
g4
sS'precessor'
p109
NsS'tab'
p110
NsS'path'
p111
V/Users/jupp/workspace/meud/workspace/pm.xml
p112
sS'type'
p113
S'Concepts'
p114
sS'children'
p115
(lp116
sS'dir'
p117
I00
sbag1
(g2
g3
NtRp118
(dp119
S'name'
p120
Vpm.cxt
p121
sS'parent'
p122
g4
sS'precessor'
p123
NsS'path'
p124
V/Users/jupp/workspace/meud/workspace/pm.cxt
p125
sS'type'
p126
S'Context'
p127
sS'children'
p128
(lp129
sS'dir'
p130
I00
sbag1
(g2
g3
NtRp131
(dp132
g120
Vpm-1.xml
p133
sg122
g4
sg123
g118
sS'tab'
p134
Nsg124
V/Users/jupp/workspace/meud/workspace/pm-1.xml
p135
sg126
S'Concepts'
p136
sg128
(lp137
sg130
I00
sbag1
(g2
g3
NtRp138
(dp139
g120
Vpm-1-filtered.xml
p140
sg122
g4
sg123
g131
sS'tab'
p141
Nsg124
V/Users/jupp/workspace/meud/workspace/pm-1-filtered.xml
p142
sg126
g136
sg128
(lp143
sg130
I00
sbag1
(g2
g3
NtRp144
(dp145
S'name'
p146
Veconom.cxt
p147
sS'parent'
p148
g4
sS'precessor'
p149
NsS'path'
p150
V/Users/jupp/workspace/meud/workspace/econom.cxt
p151
sS'type'
p152
S'Context'
p153
sS'children'
p154
(lp155
sS'dir'
p156
I00
sbag1
(g2
g3
NtRp157
(dp158
g146
Veconom.xml
p159
sg148
g4
sg149
g144
sg141
Nsg150
V/Users/jupp/workspace/meud/workspace/econom.xml
p160
sg152
S'Concepts'
p161
sg154
(lp162
sg156
I00
sbag1
(g2
g3
NtRp163
(dp164
S'name'
p165
Veconom-first-15.xml
p166
sS'parent'
p167
g4
sS'precessor'
p168
g157
sS'tab'
p169
NsS'path'
p170
V/Users/jupp/workspace/meud/workspace/econom-first-15.xml
p171
sS'type'
p172
S'Concepts'
p173
sS'children'
p174
(lp175
sS'dir'
p176
I00
sbasS'dir'
p177
I01
sb.