ccopy_reg
_reconstructor
p1
(cmeud.workspacemodel
WorkspaceItem
p2
c__builtin__
object
p3
NtRp4
(dp5
S'name'
p6
S'Workspace'
p7
sS'parent'
p8
NsS'path'
p9
S''
sS'type'
p10
(lp11
S'Unknown'
p12
asS'children'
p13
(lp14
g1
(g2
g3
NtRp15
(dp16
S'name'
p17
Vcontext.cxt
p18
sS'parent'
p19
g4
sS'path'
p20
VC:\u005cUsers\u005cjupp\u005cworkspace\u005cmeud\u005cworkspace\u005ccontext.cxt
p21
sS'type'
p22
S'Context'
p23
sS'children'
p24
(lp25
sS'dir'
p26
I00
sbasS'dir'
p27
I01
sb.