ccopy_reg
_reconstructor
p1
(cmeud.workspacemodel
WorkspaceItem
p2
c__builtin__
object
p3
NtRp4
(dp5
S'parent'
p6
NsS'path'
p7
S''
sS'name'
p8
S'Workspace'
p9
sS'dir'
p10
I01
sS'children'
p11
(lp12
g1
(g2
g3
NtRp13
(dp14
S'parent'
p15
g4
sS'path'
p16
Vcontext.cxt
p17
sS'name'
p18
g17
sS'dir'
p19
I00
sS'children'
p20
(lp21
sbasb.